target datalayout = "e-m:e-p270:32:32-p271:32:32-p272:64:64-i64:64-i128:128-f80:128-n8:16:32:64-S128"
target triple = "x86_64-pc-linux-gnu"

%struct._packet_info = type { ptr, ptr, i32, i32, %struct.nstime_t, %struct.nstime_t, %struct.nstime_t, i8, ptr, ptr, ptr, ptr, %struct._address, %struct._address, %struct._address, %struct._address, %struct._address, %struct._address, i32, ptr, i8, [3 x i8], %struct.anon, i32, i32, i32, i32, ptr, i8, ptr, ptr, i16, i16, i32, i32, i16, i32, i32, ptr, ptr, ptr, i8, i8, i16, i16, i16, i32, i16, i16, ptr, ptr, ptr, ptr, ptr, i32, i32 }
%struct.nstime_t = type { i64, i32 }
%struct._address = type { i32, i32, ptr, ptr }
%struct.anon = type { i8, [3 x i8] }

@proto_http2 = internal global i32 0, align 4
@kMagicHello = internal global [24 x i8] c"PRI * HTTP/2.0\0D\0A\0D\0ASM\0D\0A\0D\0A", align 16

; Function Attrs: null_pointer_is_valid sspstrong uwtable
define internal i32 @dissect_http2(ptr noundef %0, ptr noundef %1, ptr noundef %2, ptr noundef %3) #1 {
  %5 = alloca ptr, align 8
  %6 = alloca ptr, align 8
  %7 = alloca ptr, align 8
  %8 = alloca ptr, align 8
  store ptr %0, ptr %5, align 8
  store ptr %1, ptr %6, align 8
  store ptr %2, ptr %7, align 8
  store ptr %3, ptr %8, align 8
  %9 = load ptr, ptr %6, align 8
  %10 = getelementptr inbounds nuw %struct._packet_info, ptr %9, i32 0, i32 1
  %11 = load ptr, ptr %10, align 8
  call void @col_clear(ptr noundef %11, i32 noundef 25)
  %12 = load ptr, ptr %5, align 8
  %13 = load ptr, ptr %6, align 8
  %14 = load ptr, ptr %7, align 8
  %15 = load ptr, ptr %8, align 8
  call void @tcp_dissect_pdus(ptr noundef %12, ptr noundef %13, ptr noundef %14, i1 noundef zeroext true, i32 noundef 9, ptr noundef @get_http2_message_len, ptr noundef @dissect_http2_pdu, ptr noundef %15)
  %16 = load ptr, ptr %5, align 8
  %17 = call i32 @tvb_captured_length(ptr noundef %16)
  ret i32 %17
}

; Function Attrs: null_pointer_is_valid sspstrong uwtable
define internal zeroext i1 @dissect_http2_heur(ptr noundef %0, ptr noundef %1, ptr noundef %2, ptr noundef %3) #1 {
  %5 = alloca i1, align 1
  %6 = alloca ptr, align 8
  %7 = alloca ptr, align 8
  %8 = alloca ptr, align 8
  %9 = alloca ptr, align 8
  %10 = alloca ptr, align 8
  %11 = alloca ptr, align 8
  %12 = alloca i32, align 4
  store ptr %0, ptr %6, align 8
  store ptr %1, ptr %7, align 8
  store ptr %2, ptr %8, align 8
  store ptr %3, ptr %9, align 8
  call void @llvm.lifetime.start.p0(i64 8, ptr %10) #7
  call void @llvm.lifetime.start.p0(i64 8, ptr %11) #7
  %13 = load ptr, ptr %7, align 8
  %14 = call ptr @find_or_create_conversation(ptr noundef %13)
  store ptr %14, ptr %10, align 8
  %15 = load ptr, ptr %10, align 8
  %16 = load i32, ptr @proto_http2, align 4
  %17 = call ptr @conversation_get_proto_data(ptr noundef %15, i32 noundef %16)
  store ptr %17, ptr %11, align 8
  %18 = load ptr, ptr %11, align 8
  %19 = icmp ne ptr %18, null
  br i1 %19, label %20, label %26

20:                                               ; preds = %4
  %21 = load ptr, ptr %6, align 8
  %22 = load ptr, ptr %7, align 8
  %23 = load ptr, ptr %8, align 8
  %24 = load ptr, ptr %9, align 8
  %25 = call i32 @dissect_http2(ptr noundef %21, ptr noundef %22, ptr noundef %23, ptr noundef %24)
  store i1 true, ptr %5, align 1
  store i32 1, ptr %12, align 4
  br label %40

26:                                               ; preds = %4
  %27 = load ptr, ptr %6, align 8
  %28 = call i32 @tvb_memeql(ptr noundef %27, i32 noundef 0, ptr noundef @kMagicHello, i64 noundef 24)
  %29 = icmp ne i32 %28, 0
  br i1 %29, label %30, label %31

30:                                               ; preds = %26
  store i1 false, ptr %5, align 1
  store i32 1, ptr %12, align 4
  br label %40

31:                                               ; preds = %26
  %32 = load ptr, ptr %7, align 8
  %33 = load ptr, ptr %10, align 8
  %34 = call ptr @get_http2_session(ptr noundef %32, ptr noundef %33)
  %35 = load ptr, ptr %6, align 8
  %36 = load ptr, ptr %7, align 8
  %37 = load ptr, ptr %8, align 8
  %38 = load ptr, ptr %9, align 8
  %39 = call i32 @dissect_http2(ptr noundef %35, ptr noundef %36, ptr noundef %37, ptr noundef %38)
  store i1 true, ptr %5, align 1
  store i32 1, ptr %12, align 4
  br label %40

40:                                               ; preds = %31, %30, %20
  call void @llvm.lifetime.end.p0(i64 8, ptr %11) #7
  call void @llvm.lifetime.end.p0(i64 8, ptr %10) #7
  %41 = load i1, ptr %5, align 1
  ret i1 %41
}