; Function Attrs: null_pointer_is_valid sspstrong uwtable
define internal noundef zeroext i1 @dissect_http2_heur(ptr noundef %0, ptr noundef %1, ptr noundef %2, ptr noundef %3) #1 {
  %5 = tail call ptr @find_or_create_conversation(ptr noundef %1)
  %6 = load i32, ptr @proto_http2, align 4
  %7 = tail call ptr @conversation_get_proto_data(ptr noundef %5, i32 noundef %6)
  %.not = icmp eq ptr %7, null
  br i1 %.not, label %8, label %.sink.split

8:                                                ; preds = %4
  %9 = tail call i32 @tvb_memeql(ptr noundef %0, i32 noundef 0, ptr noundef nonnull @kMagicHello, i64 noundef 24)
  %.not15 = icmp eq i32 %9, 0
  br i1 %.not15, label %10, label %15

10:                                               ; preds = %8
  %11 = tail call fastcc ptr @get_http2_session(ptr noundef %1, ptr noundef %5)
  br label %.sink.split

.sink.split:                                      ; preds = %4, %10
  %12 = getelementptr inbounds nuw i8, ptr %1, i64 8
  %13 = load ptr, ptr %12, align 8
  tail call void @col_clear(ptr noundef %13, i32 noundef 25)
  tail call void @tcp_dissect_pdus(ptr noundef %0, ptr noundef %1, ptr noundef %2, i1 noundef zeroext true, i32 noundef 9, ptr noundef nonnull @get_http2_message_len, ptr noundef nonnull @dissect_http2_pdu, ptr noundef %3)
  %14 = tail call i32 @tvb_captured_length(ptr noundef %0)
  br label %15

15:                                               ; preds = %.sink.split, %8
  %.0 = phi i1 [ false, %8 ], [ true, %.sink.split ]
  ret i1 %.0
}